; Function Attrs: null_pointer_is_valid sspstrong uwtable
define hidden void @DfilterFree(ptr noundef %0, ptr noundef readonly captures(none) %1) local_unnamed_addr #2 {
  %3 = icmp eq ptr %0, null
  br i1 %3, label %15, label %4

4:                                                ; preds = %2
  %5 = getelementptr inbounds nuw i8, ptr %0, i64 24
  %6 = load ptr, ptr %0, align 8
  %7 = icmp ugt ptr %6, %5
  br i1 %7, label %.lr.ph.i, label %DfilterFinalize.exit

.lr.ph.i:                                         ; preds = %4, %.lr.ph.i
  %8 = phi ptr [ %13, %.lr.ph.i ], [ %6, %4 ]
  %9 = getelementptr i8, ptr %8, i64 -16
  store ptr %9, ptr %0, align 8
  %10 = getelementptr inbounds nuw i8, ptr %8, i64 1
  %11 = load i8, ptr %10, align 1
  %12 = getelementptr inbounds nuw i8, ptr %8, i64 8
  tail call fastcc void @yy_destructor(i8 noundef zeroext %11, ptr noundef nonnull %12)
  %13 = load ptr, ptr %0, align 8
  %14 = icmp ugt ptr %13, %5
  br i1 %14, label %.lr.ph.i, label %DfilterFinalize.exit, !llvm.loop !6

DfilterFinalize.exit:                             ; preds = %.lr.ph.i, %4
  tail call void %1(ptr noundef nonnull %0)
  br label %15

15:                                               ; preds = %2, %DfilterFinalize.exit
  ret void
}